target datalayout = "e-m:e-p270:32:32-p271:32:32-p272:64:64-i64:64-i128:128-f80:128-n8:16:32:64-S128"
target triple = "x86_64-pc-linux-gnu"

%struct.rb_random_mt_t = type { %struct.rb_random_struct, %struct.MT }
%struct.rb_random_struct = type { i64 }
%struct.MT = type { [624 x i32], ptr, i32 }

; Function Attrs: nounwind sspstrong uwtable
define internal void @init_genrand(ptr noundef %0, i32 noundef %1) #0 {
  %3 = alloca ptr, align 8
  %4 = alloca i32, align 4
  %5 = alloca i32, align 4
  store ptr %0, ptr %3, align 8, !tbaa !12
  store i32 %1, ptr %4, align 4, !tbaa !19
  call void @llvm.lifetime.start.p0(i64 4, ptr %5) #24
  %6 = load i32, ptr %4, align 4, !tbaa !19
  %7 = and i32 %6, -1
  %8 = load ptr, ptr %3, align 8, !tbaa !12
  %9 = getelementptr inbounds nuw %struct.MT, ptr %8, i32 0, i32 0
  %10 = getelementptr [624 x i32], ptr %9, i64 0, i64 0
  store i32 %7, ptr %10, align 8, !tbaa !19
  store i32 1, ptr %5, align 4, !tbaa !19
  br label %11

11:                                               ; preds = %46, %2
  %12 = load i32, ptr %5, align 4, !tbaa !19
  %13 = icmp slt i32 %12, 624
  br i1 %13, label %14, label %49

14:                                               ; preds = %11
  %15 = load ptr, ptr %3, align 8, !tbaa !12
  %16 = getelementptr inbounds nuw %struct.MT, ptr %15, i32 0, i32 0
  %17 = load i32, ptr %5, align 4, !tbaa !19
  %18 = sub i32 %17, 1
  %19 = sext i32 %18 to i64
  %20 = getelementptr [624 x i32], ptr %16, i64 0, i64 %19
  %21 = load i32, ptr %20, align 4, !tbaa !19
  %22 = load ptr, ptr %3, align 8, !tbaa !12
  %23 = getelementptr inbounds nuw %struct.MT, ptr %22, i32 0, i32 0
  %24 = load i32, ptr %5, align 4, !tbaa !19
  %25 = sub i32 %24, 1
  %26 = sext i32 %25 to i64
  %27 = getelementptr [624 x i32], ptr %23, i64 0, i64 %26
  %28 = load i32, ptr %27, align 4, !tbaa !19
  %29 = lshr i32 %28, 30
  %30 = xor i32 %21, %29
  %31 = mul i32 1812433253, %30
  %32 = load i32, ptr %5, align 4, !tbaa !19
  %33 = add i32 %31, %32
  %34 = load ptr, ptr %3, align 8, !tbaa !12
  %35 = getelementptr inbounds nuw %struct.MT, ptr %34, i32 0, i32 0
  %36 = load i32, ptr %5, align 4, !tbaa !19
  %37 = sext i32 %36 to i64
  %38 = getelementptr [624 x i32], ptr %35, i64 0, i64 %37
  store i32 %33, ptr %38, align 4, !tbaa !19
  %39 = load ptr, ptr %3, align 8, !tbaa !12
  %40 = getelementptr inbounds nuw %struct.MT, ptr %39, i32 0, i32 0
  %41 = load i32, ptr %5, align 4, !tbaa !19
  %42 = sext i32 %41 to i64
  %43 = getelementptr [624 x i32], ptr %40, i64 0, i64 %42
  %44 = load i32, ptr %43, align 4, !tbaa !19
  %45 = and i32 %44, -1
  store i32 %45, ptr %43, align 4, !tbaa !19
  br label %46

46:                                               ; preds = %14
  %47 = load i32, ptr %5, align 4, !tbaa !19
  %48 = add i32 %47, 1
  store i32 %48, ptr %5, align 4, !tbaa !19
  br label %11, !llvm.loop !85

49:                                               ; preds = %11
  %50 = load ptr, ptr %3, align 8, !tbaa !12
  %51 = getelementptr inbounds nuw %struct.MT, ptr %50, i32 0, i32 2
  store i32 1, ptr %51, align 8, !tbaa !14
  %52 = load ptr, ptr %3, align 8, !tbaa !12
  %53 = getelementptr inbounds nuw %struct.MT, ptr %52, i32 0, i32 0
  %54 = getelementptr inbounds [624 x i32], ptr %53, i64 0, i64 0
  %55 = getelementptr i32, ptr %54, i64 624
  %56 = load ptr, ptr %3, align 8, !tbaa !12
  %57 = getelementptr inbounds nuw %struct.MT, ptr %56, i32 0, i32 1
  store ptr %55, ptr %57, align 8, !tbaa !18
  call void @llvm.lifetime.end.p0(i64 4, ptr %5) #24
  ret void
}

; Function Attrs: nounwind sspstrong uwtable
define internal void @rand_mt_init_int32(ptr noundef %0, i32 noundef %1) #0 {
  %3 = alloca ptr, align 8
  %4 = alloca i32, align 4
  %5 = alloca ptr, align 8
  store ptr %0, ptr %3, align 8, !tbaa !24
  store i32 %1, ptr %4, align 4, !tbaa !19
  call void @llvm.lifetime.start.p0(i64 8, ptr %5) #24
  %6 = load ptr, ptr %3, align 8, !tbaa !24
  %7 = getelementptr inbounds nuw %struct.rb_random_mt_t, ptr %6, i32 0, i32 1
  store ptr %7, ptr %5, align 8, !tbaa !12
  %8 = load ptr, ptr %5, align 8, !tbaa !12
  %9 = load i32, ptr %4, align 4, !tbaa !19
  call void @init_genrand(ptr noundef %8, i32 noundef %9)
  call void @llvm.lifetime.end.p0(i64 8, ptr %5) #24
  ret void
}