; Function Attrs: nofree norecurse nosync nounwind sspstrong memory(argmem: write) uwtable
define internal void @rand_mt_init_int32(ptr noundef initializes((8, 12)) %0, i32 noundef %1) #13 {
  %3 = getelementptr inbounds nuw i8, ptr %0, i64 8
  store i32 %1, ptr %3, align 8, !tbaa !22
  br label %4

4:                                                ; preds = %4, %2
  %5 = phi i32 [ %1, %2 ], [ %10, %4 ]
  %indvars.iv.i = phi i64 [ 1, %2 ], [ %indvars.iv.next.i, %4 ]
  %6 = lshr i32 %5, 30
  %7 = xor i32 %6, %5
  %8 = mul i32 %7, 1812433253
  %9 = trunc nuw nsw i64 %indvars.iv.i to i32
  %10 = add i32 %8, %9
  %11 = getelementptr [624 x i32], ptr %3, i64 0, i64 %indvars.iv.i
  store i32 %10, ptr %11, align 4, !tbaa !22
  %indvars.iv.next.i = add nuw nsw i64 %indvars.iv.i, 1
  %exitcond.not.i = icmp eq i64 %indvars.iv.next.i, 624
  br i1 %exitcond.not.i, label %init_genrand.exit, label %4, !llvm.loop !67

init_genrand.exit:                                ; preds = %4
  %12 = getelementptr inbounds nuw i8, ptr %0, i64 2512
  store i32 1, ptr %12, align 8, !tbaa !20
  %13 = getelementptr i8, ptr %0, i64 2504
  store ptr %13, ptr %13, align 8, !tbaa !21
  ret void
}